target datalayout = "e-m:e-p270:32:32-p271:32:32-p272:64:64-i64:64-i128:128-f80:128-n8:16:32:64-S128"
target triple = "x86_64-pc-linux-gnu"

%struct.php_http_parser = type { i8, i8, i8, i8, i32, i64, i16, i16, i16, i8, i8, ptr }

; Function Attrs: nounwind uwtable
define hidden void @php_http_parser_init(ptr noundef %0, i32 noundef %1) #0 {
  %3 = alloca ptr, align 8
  %4 = alloca i32, align 4
  store ptr %0, ptr %3, align 8, !tbaa !4
  store i32 %1, ptr %4, align 4, !tbaa !19
  %5 = load i32, ptr %4, align 4, !tbaa !19
  %6 = trunc i32 %5 to i8
  %7 = load ptr, ptr %3, align 8, !tbaa !4
  %8 = load i8, ptr %7, align 8
  %9 = and i8 %6, 3
  %10 = and i8 %8, -4
  %11 = or i8 %10, %9
  store i8 %11, ptr %7, align 8
  %12 = load i32, ptr %4, align 4, !tbaa !19
  %13 = icmp eq i32 %12, 0
  br i1 %13, label %14, label %15

14:                                               ; preds = %2
  br label %19

15:                                               ; preds = %2
  %16 = load i32, ptr %4, align 4, !tbaa !19
  %17 = icmp eq i32 %16, 1
  %18 = select i1 %17, i32 4, i32 2
  br label %19

19:                                               ; preds = %15, %14
  %20 = phi i32 [ 17, %14 ], [ %18, %15 ]
  %21 = trunc i32 %20 to i8
  %22 = load ptr, ptr %3, align 8, !tbaa !4
  %23 = getelementptr inbounds nuw %struct.php_http_parser, ptr %22, i32 0, i32 1
  store i8 %21, ptr %23, align 1, !tbaa !15
  %24 = load ptr, ptr %3, align 8, !tbaa !4
  %25 = getelementptr inbounds nuw %struct.php_http_parser, ptr %24, i32 0, i32 4
  store i32 0, ptr %25, align 4, !tbaa !22
  %26 = load ptr, ptr %3, align 8, !tbaa !4
  %27 = getelementptr inbounds nuw %struct.php_http_parser, ptr %26, i32 0, i32 10
  store i8 0, ptr %27, align 1, !tbaa !38
  %28 = load ptr, ptr %3, align 8, !tbaa !4
  %29 = load i8, ptr %28, align 8
  %30 = and i8 %29, 3
  %31 = or i8 %30, 0
  store i8 %31, ptr %28, align 8
  %32 = load ptr, ptr %3, align 8, !tbaa !4
  %33 = getelementptr inbounds nuw %struct.php_http_parser, ptr %32, i32 0, i32 9
  store i8 0, ptr %33, align 2, !tbaa !28
  ret void
}