; Function Attrs: mustprogress nofree norecurse nosync nounwind willreturn memory(argmem: write) uwtable
define hidden void @php_http_parser_init(ptr noundef writeonly captures(none) initializes((0, 2), (4, 8), (22, 24)) %0, i32 noundef %1) local_unnamed_addr #3 {
  %3 = trunc i32 %1 to i8
  %4 = and i8 %3, 3
  %5 = icmp eq i32 %1, 0
  %6 = icmp eq i32 %1, 1
  %7 = select i1 %6, i8 4, i8 2
  %8 = select i1 %5, i8 17, i8 %7
  %9 = getelementptr inbounds nuw i8, ptr %0, i64 1
  store i8 %8, ptr %9, align 1, !tbaa !4
  %10 = getelementptr inbounds nuw i8, ptr %0, i64 4
  store i32 0, ptr %10, align 4, !tbaa !14
  %11 = getelementptr inbounds nuw i8, ptr %0, i64 23
  store i8 0, ptr %11, align 1, !tbaa !32
  store i8 %4, ptr %0, align 8
  %12 = getelementptr inbounds nuw i8, ptr %0, i64 22
  store i8 0, ptr %12, align 2, !tbaa !20
  ret void
}